; Function Attrs: mustprogress uwtable
define hidden noundef ptr @_ZN11proto_model14get_some_valueEP4sort(ptr nocapture noundef nonnull readonly align 8 dereferenceable(177) %this, ptr noundef %s) unnamed_addr #3 align 2 {
entry:
  %m_info.i.i = getelementptr inbounds i8, ptr %s, i64 24
  %0 = load ptr, ptr %m_info.i.i, align 8
  %cmp.i.i = icmp eq ptr %0, null
  br i1 %cmp.i.i, label %if.then, label %_ZNK11ast_manager11is_uninterpEPK4sort.exit

_ZNK11ast_manager11is_uninterpEPK4sort.exit:      ; preds = %entry
  %1 = load i32, ptr %0, align 8
  switch i32 %1, label %if.end.i.i [
    i32 -1, label %if.then
    i32 4, label %if.then
  ]

if.then:                                          ; preds = %_ZNK11ast_manager11is_uninterpEPK4sort.exit, %_ZNK11ast_manager11is_uninterpEPK4sort.exit, %entry
  %m_user_sort_factory = getelementptr inbounds i8, ptr %this, i64 112
  %2 = load ptr, ptr %m_user_sort_factory, align 8
  %vtable = load ptr, ptr %2, align 8
  %vfn = getelementptr inbounds i8, ptr %vtable, i64 16
  %3 = load ptr, ptr %vfn, align 8
  %call2 = tail call noundef ptr %3(ptr noundef nonnull align 8 dereferenceable(136) %2, ptr noundef nonnull %s)
  br label %return

if.end.i.i:                                       ; preds = %_ZNK11ast_manager11is_uninterpEPK4sort.exit
  %m_factories.i = getelementptr inbounds i8, ptr %this, i64 96
  %4 = load ptr, ptr %m_factories.i, align 8
  %cmp.i.i.i.i = icmp eq ptr %4, null
  br i1 %cmp.i.i.i.i, label %if.else9, label %_ZNK6vectorIP13value_factoryLb0EjE3getEjRKS1_.exit.i.i

_ZNK6vectorIP13value_factoryLb0EjE3getEjRKS1_.exit.i.i: ; preds = %if.end.i.i
  %arrayidx.i.i.i.i = getelementptr inbounds i8, ptr %4, i64 -4
  %5 = load i32, ptr %arrayidx.i.i.i.i, align 4
  %cmp.not.i.i.i = icmp ugt i32 %5, %1
  br i1 %cmp.not.i.i.i, label %_ZN11proto_model11get_factoryEi.exit, label %if.else9

_ZN11proto_model11get_factoryEi.exit:             ; preds = %_ZNK6vectorIP13value_factoryLb0EjE3getEjRKS1_.exit.i.i
  %idxprom.i.i.i = zext i32 %1 to i64
  %arrayidx.i.i.i = getelementptr inbounds ptr, ptr %4, i64 %idxprom.i.i.i
  %.then.val.i.i = load ptr, ptr %arrayidx.i.i.i, align 8
  %tobool.not = icmp eq ptr %.then.val.i.i, null
  br i1 %tobool.not, label %if.else9, label %if.then5

if.then5:                                         ; preds = %_ZN11proto_model11get_factoryEi.exit
  %vtable6 = load ptr, ptr %.then.val.i.i, align 8
  %vfn7 = getelementptr inbounds i8, ptr %vtable6, i64 16
  %6 = load ptr, ptr %vfn7, align 8
  %call8 = tail call noundef ptr %6(ptr noundef nonnull align 8 dereferenceable(20) %.then.val.i.i, ptr noundef nonnull %s)
  br label %return

if.else9:                                         ; preds = %if.end.i.i, %_ZNK6vectorIP13value_factoryLb0EjE3getEjRKS1_.exit.i.i, %_ZN11proto_model11get_factoryEi.exit
  %m_user_sort_factory10 = getelementptr inbounds i8, ptr %this, i64 112
  %7 = load ptr, ptr %m_user_sort_factory10, align 8
  %vtable11 = load ptr, ptr %7, align 8
  %vfn12 = getelementptr inbounds i8, ptr %vtable11, i64 16
  %8 = load ptr, ptr %vfn12, align 8
  %call13 = tail call noundef ptr %8(ptr noundef nonnull align 8 dereferenceable(136) %7, ptr noundef nonnull %s)
  br label %return

return:                                           ; preds = %if.else9, %if.then5, %if.then
  %retval.0 = phi ptr [ %call2, %if.then ], [ %call8, %if.then5 ], [ %call13, %if.else9 ]
  ret ptr %retval.0
}